; Function Attrs: mustprogress uwtable
define hidden void @_ZN5zxing24GlobalHistogramBinarizer15createBinarizerENS_3RefINS_15LuminanceSourceEEE(ptr dead_on_unwind noalias writable writeonly sret(%"class.zxing::Ref.19") align 8 captures(none) %0, ptr nonnull readnone align 8 captures(none) %1, ptr noundef readonly captures(none) %2) unnamed_addr #2 align 2 personality ptr @__gxx_personality_v0 {
  %4 = alloca %"class.zxing::Ref", align 8
  %5 = tail call noalias noundef nonnull dereferenceable(128) ptr @_Znwm(i64 noundef 128) #16
  %6 = load ptr, ptr %2, align 8, !tbaa !14
  %.not.i.i = icmp eq ptr %6, null
  br i1 %.not.i.i, label %11, label %7

7:                                                ; preds = %3
  %8 = getelementptr inbounds nuw i8, ptr %6, i64 8
  %9 = load i32, ptr %8, align 8, !tbaa !13
  %10 = add i32 %9, 1
  store i32 %10, ptr %8, align 8, !tbaa !13
  br label %11

11:                                               ; preds = %7, %3
  store ptr %6, ptr %4, align 8, !tbaa !14
  invoke void @_ZN5zxing24GlobalHistogramBinarizerC2ENS_3RefINS_15LuminanceSourceEEE(ptr noundef nonnull align 8 dereferenceable(121) %5, ptr noundef nonnull %4)
          to label %12 unwind label %25

12:                                               ; preds = %11
  %13 = getelementptr inbounds nuw i8, ptr %5, i64 8
  %14 = load i32, ptr %13, align 8, !tbaa !13
  %15 = add i32 %14, 1
  store i32 %15, ptr %13, align 8, !tbaa !13
  store ptr %5, ptr %0, align 8, !tbaa !72
  br i1 %.not.i.i, label %_ZN5zxing3RefINS_15LuminanceSourceEED2Ev.exit, label %16

16:                                               ; preds = %12
  %17 = getelementptr inbounds nuw i8, ptr %6, i64 8
  %18 = load i32, ptr %17, align 8, !tbaa !13
  %19 = add i32 %18, -1
  store i32 %19, ptr %17, align 8, !tbaa !13
  %20 = icmp eq i32 %19, 0
  br i1 %20, label %21, label %_ZN5zxing3RefINS_15LuminanceSourceEED2Ev.exit

21:                                               ; preds = %16
  store i32 -559026175, ptr %17, align 8, !tbaa !13
  %22 = load ptr, ptr %6, align 8, !tbaa !3
  %23 = getelementptr inbounds nuw i8, ptr %22, i64 8
  %24 = load ptr, ptr %23, align 8
  tail call void %24(ptr noundef nonnull align 8 dereferenceable(12) %6) #15
  br label %_ZN5zxing3RefINS_15LuminanceSourceEED2Ev.exit

_ZN5zxing3RefINS_15LuminanceSourceEED2Ev.exit:    ; preds = %12, %16, %21
  ret void

25:                                               ; preds = %11
  %26 = landingpad { ptr, i32 }
          cleanup
  br i1 %.not.i.i, label %36, label %27

27:                                               ; preds = %25
  %28 = getelementptr inbounds nuw i8, ptr %6, i64 8
  %29 = load i32, ptr %28, align 8, !tbaa !13
  %30 = add i32 %29, -1
  store i32 %30, ptr %28, align 8, !tbaa !13
  %31 = icmp eq i32 %30, 0
  br i1 %31, label %32, label %36

32:                                               ; preds = %27
  store i32 -559026175, ptr %28, align 8, !tbaa !13
  %33 = load ptr, ptr %6, align 8, !tbaa !3
  %34 = getelementptr inbounds nuw i8, ptr %33, i64 8
  %35 = load ptr, ptr %34, align 8
  tail call void %35(ptr noundef nonnull align 8 dereferenceable(12) %6) #15
  br label %36

36:                                               ; preds = %32, %27, %25
  tail call void @_ZdlPv(ptr noundef nonnull %5) #17
  resume { ptr, i32 } %26
}